target datalayout = "e-m:e-p270:32:32-p271:32:32-p272:64:64-i64:64-i128:128-f80:128-n8:16:32:64-S128"
target triple = "x86_64-pc-linux-gnu"

%class.QString = type { ptr }
%class.QObject = type { ptr, %class.QScopedPointer }
%class.QScopedPointer = type { ptr }
%class.QualityMapperDialog = type { %class.QDockWidget, %"class.Ui::QualityMapperDialogClass", ptr, ptr, %class.QGraphicsScene, [3 x ptr], double, i8, i8, %class.QList, i32, ptr, ptr, ptr, %class.QGraphicsScene, ptr, [3 x %class.QList.22], ptr, %class.QString, %class.QList, %class.QList, i8, %class.QList.25, %class.QList, ptr, ptr }
%class.QDockWidget = type { %class.QWidget }
%class.QWidget = type { %class.QObject, %class.QPaintDevice, ptr }
%class.QPaintDevice = type { ptr, i16, ptr }
%"class.Ui::QualityMapperDialogClass" = type { %class.Ui_QualityMapperDialogClass }
%class.Ui_QualityMapperDialogClass = type { ptr, ptr, ptr, ptr, ptr, ptr, ptr, ptr, ptr, ptr, ptr, ptr, ptr, ptr, ptr, ptr, ptr, ptr, ptr, ptr, ptr, ptr, ptr, ptr, ptr, ptr, ptr, ptr, ptr, ptr, ptr, ptr, ptr, ptr, ptr, ptr, ptr, ptr, ptr, ptr, ptr, ptr, ptr, ptr, ptr, ptr, ptr, ptr, ptr, ptr, ptr, ptr, ptr, ptr, ptr, ptr, ptr, ptr, ptr, ptr, ptr, ptr, ptr, ptr, ptr, ptr, ptr, ptr }
%class.QGraphicsScene = type { %class.QObject }
%class.QList.22 = type { %union.anon.24 }
%union.anon.24 = type { %struct.QListData }
%struct.QListData = type { ptr }
%class.QList.25 = type { %union.anon.27 }
%union.anon.27 = type { %struct.QListData }
%class.QList = type { %union.anon }
%union.anon = type { %struct.QListData }

; Function Attrs: mustprogress uwtable
define void @_ZN19QualityMapperDialog30on_EqHandle_crossing_histogramEP8EqHandleb(ptr noundef nonnull align 8 dereferenceable(824) %0, ptr noundef %1, i1 noundef zeroext %2) #5 align 2 {
  %4 = alloca ptr, align 8
  %5 = alloca ptr, align 8
  %6 = alloca i8, align 1
  store ptr %0, ptr %4, align 8
  store ptr %1, ptr %5, align 8
  %7 = zext i1 %2 to i8
  store i8 %7, ptr %6, align 1
  %8 = load ptr, ptr %4, align 8
  %9 = load ptr, ptr %5, align 8
  %10 = getelementptr inbounds %class.QualityMapperDialog, ptr %8, i32 0, i32 5
  %11 = getelementptr inbounds [3 x ptr], ptr %10, i64 0, i64 0
  %12 = load ptr, ptr %11, align 8
  %13 = icmp eq ptr %9, %12
  br i1 %13, label %14, label %21

14:                                               ; preds = %3
  %15 = load i8, ptr %6, align 1
  %16 = trunc i8 %15 to i1
  %17 = getelementptr inbounds %class.QualityMapperDialog, ptr %8, i32 0, i32 8
  %18 = load i8, ptr %17, align 1
  %19 = trunc i8 %18 to i1
  %20 = call noundef zeroext i1 @_ZN19QualityMapperDialog22drawEqualizerHistogramEbb(ptr noundef nonnull align 8 dereferenceable(824) %8, i1 noundef zeroext %16, i1 noundef zeroext %19)
  br label %28

21:                                               ; preds = %3
  %22 = getelementptr inbounds %class.QualityMapperDialog, ptr %8, i32 0, i32 7
  %23 = load i8, ptr %22, align 8
  %24 = trunc i8 %23 to i1
  %25 = load i8, ptr %6, align 1
  %26 = trunc i8 %25 to i1
  %27 = call noundef zeroext i1 @_ZN19QualityMapperDialog22drawEqualizerHistogramEbb(ptr noundef nonnull align 8 dereferenceable(824) %8, i1 noundef zeroext %24, i1 noundef zeroext %26)
  br label %28

28:                                               ; preds = %21, %14
  ret void
}