; Function Attrs: mustprogress uwtable
define void @_ZN19QualityMapperDialog30on_EqHandle_crossing_histogramEP8EqHandleb(ptr noundef nonnull align 8 dereferenceable(824) %0, ptr noundef readnone %1, i1 noundef zeroext %2) local_unnamed_addr #9 align 2 {
  %4 = getelementptr inbounds i8, ptr %0, i64 624
  %5 = load ptr, ptr %4, align 8
  %6 = icmp eq ptr %5, %1
  br i1 %6, label %7, label %12

7:                                                ; preds = %3
  %8 = getelementptr inbounds i8, ptr %0, i64 657
  %9 = load i8, ptr %8, align 1
  %10 = and i8 %9, 1
  %11 = icmp ne i8 %10, 0
  br label %17

12:                                               ; preds = %3
  %13 = getelementptr inbounds i8, ptr %0, i64 656
  %14 = load i8, ptr %13, align 8
  %15 = and i8 %14, 1
  %16 = icmp ne i8 %15, 0
  br label %17

17:                                               ; preds = %12, %7
  %.sink3 = phi i1 [ %2, %12 ], [ %11, %7 ]
  %.sink = phi i1 [ %16, %12 ], [ %2, %7 ]
  %18 = tail call noundef zeroext i1 @_ZN19QualityMapperDialog22drawEqualizerHistogramEbb(ptr noundef nonnull align 8 dereferenceable(824) %0, i1 noundef zeroext %.sink, i1 noundef zeroext %.sink3)
  ret void
}